target datalayout = "e-m:e-p270:32:32-p271:32:32-p272:64:64-i64:64-i128:128-f80:128-n8:16:32:64-S128"
target triple = "x86_64-pc-linux-gnu"

%struct._zend_op_array = type { i8, [3 x i8], i32, ptr, ptr, ptr, i32, i32, ptr, ptr, ptr, ptr, i32, ptr, i32, i32, i32, ptr, ptr, ptr, ptr, ptr, i32, i32, ptr, ptr, ptr, i32, i32, i32, i32, ptr, ptr, [6 x ptr] }
%struct._zend_live_range = type { i32, i32, i32 }

; Function Attrs: nounwind uwtable
define internal void @emit_live_range_raw(ptr noundef %0, i32 noundef %1, i32 noundef %2, i32 noundef %3, i32 noundef %4) #0 {
  %6 = alloca ptr, align 8
  %7 = alloca i32, align 4
  %8 = alloca i32, align 4
  %9 = alloca i32, align 4
  %10 = alloca i32, align 4
  %11 = alloca ptr, align 8
  store ptr %0, ptr %6, align 8, !tbaa !4
  store i32 %1, ptr %7, align 4, !tbaa !10
  store i32 %2, ptr %8, align 4, !tbaa !10
  store i32 %3, ptr %9, align 4, !tbaa !10
  store i32 %4, ptr %10, align 4, !tbaa !10
  call void @llvm.lifetime.start.p0(i64 8, ptr %11) #14
  %12 = load ptr, ptr %6, align 8, !tbaa !4
  %13 = getelementptr inbounds nuw %struct._zend_op_array, ptr %12, i32 0, i32 22
  %14 = load i32, ptr %13, align 8, !tbaa !45
  %15 = add nsw i32 %14, 1
  store i32 %15, ptr %13, align 8, !tbaa !45
  %16 = load ptr, ptr %6, align 8, !tbaa !4
  %17 = getelementptr inbounds nuw %struct._zend_op_array, ptr %16, i32 0, i32 24
  %18 = load ptr, ptr %17, align 8, !tbaa !43
  %19 = load ptr, ptr %6, align 8, !tbaa !4
  %20 = getelementptr inbounds nuw %struct._zend_op_array, ptr %19, i32 0, i32 22
  %21 = load i32, ptr %20, align 8, !tbaa !45
  %22 = sext i32 %21 to i64
  %23 = mul i64 12, %22
  %24 = call ptr @_erealloc(ptr noundef %18, i64 noundef %23) #15
  %25 = load ptr, ptr %6, align 8, !tbaa !4
  %26 = getelementptr inbounds nuw %struct._zend_op_array, ptr %25, i32 0, i32 24
  store ptr %24, ptr %26, align 8, !tbaa !43
  %27 = load i32, ptr %9, align 4, !tbaa !10
  %28 = load i32, ptr %10, align 4, !tbaa !10
  %29 = icmp ult i32 %27, %28
  call void @llvm.assume(i1 %29)
  %30 = load ptr, ptr %6, align 8, !tbaa !4
  %31 = getelementptr inbounds nuw %struct._zend_op_array, ptr %30, i32 0, i32 24
  %32 = load ptr, ptr %31, align 8, !tbaa !43
  %33 = load ptr, ptr %6, align 8, !tbaa !4
  %34 = getelementptr inbounds nuw %struct._zend_op_array, ptr %33, i32 0, i32 22
  %35 = load i32, ptr %34, align 8, !tbaa !45
  %36 = sub nsw i32 %35, 1
  %37 = sext i32 %36 to i64
  %38 = getelementptr inbounds %struct._zend_live_range, ptr %32, i64 %37
  store ptr %38, ptr %11, align 8, !tbaa !193
  %39 = load ptr, ptr %6, align 8, !tbaa !4
  %40 = getelementptr inbounds nuw %struct._zend_op_array, ptr %39, i32 0, i32 15
  %41 = load i32, ptr %40, align 4, !tbaa !30
  %42 = load i32, ptr %7, align 4, !tbaa !10
  %43 = add i32 %41, %42
  %44 = add i32 %43, 5
  %45 = zext i32 %44 to i64
  %46 = mul i64 %45, 16
  %47 = trunc i64 %46 to i32
  %48 = load ptr, ptr %11, align 8, !tbaa !193
  %49 = getelementptr inbounds nuw %struct._zend_live_range, ptr %48, i32 0, i32 0
  store i32 %47, ptr %49, align 4, !tbaa !219
  %50 = load i32, ptr %8, align 4, !tbaa !10
  %51 = load ptr, ptr %11, align 8, !tbaa !193
  %52 = getelementptr inbounds nuw %struct._zend_live_range, ptr %51, i32 0, i32 0
  %53 = load i32, ptr %52, align 4, !tbaa !219
  %54 = or i32 %53, %50
  store i32 %54, ptr %52, align 4, !tbaa !219
  %55 = load i32, ptr %9, align 4, !tbaa !10
  %56 = load ptr, ptr %11, align 8, !tbaa !193
  %57 = getelementptr inbounds nuw %struct._zend_live_range, ptr %56, i32 0, i32 1
  store i32 %55, ptr %57, align 4, !tbaa !194
  %58 = load i32, ptr %10, align 4, !tbaa !10
  %59 = load ptr, ptr %11, align 8, !tbaa !193
  %60 = getelementptr inbounds nuw %struct._zend_live_range, ptr %59, i32 0, i32 2
  store i32 %58, ptr %60, align 4, !tbaa !220
  call void @llvm.lifetime.end.p0(i64 8, ptr %11) #14
  ret void
}