; Function Attrs: nounwind uwtable
define internal fastcc void @emit_live_range_raw(ptr noundef captures(none) %0, i32 noundef %1, i32 noundef range(i32 0, 5) %2, i32 noundef %3, i32 noundef %4) unnamed_addr #0 {
  %6 = getelementptr inbounds nuw i8, ptr %0, i64 144
  %7 = load i32, ptr %6, align 8, !tbaa !163
  %8 = add nsw i32 %7, 1
  store i32 %8, ptr %6, align 8, !tbaa !163
  %9 = getelementptr inbounds nuw i8, ptr %0, i64 152
  %10 = load ptr, ptr %9, align 8, !tbaa !56
  %11 = sext i32 %8 to i64
  %12 = mul nsw i64 %11, 12
  %13 = tail call ptr @_erealloc(ptr noundef %10, i64 noundef %12) #16
  store ptr %13, ptr %9, align 8, !tbaa !56
  %14 = icmp ult i32 %3, %4
  tail call void @llvm.assume(i1 %14)
  %15 = load i32, ptr %6, align 8, !tbaa !163
  %16 = sext i32 %15 to i64
  %17 = getelementptr %struct._zend_live_range, ptr %13, i64 %16
  %18 = getelementptr i8, ptr %17, i64 -12
  %19 = getelementptr inbounds nuw i8, ptr %0, i64 92
  %20 = load i32, ptr %19, align 4, !tbaa !28
  %21 = add i32 %20, %1
  %22 = shl i32 %21, 4
  %23 = add i32 %22, 80
  %24 = or disjoint i32 %23, %2
  store i32 %24, ptr %18, align 4, !tbaa !169
  %25 = getelementptr i8, ptr %17, i64 -8
  store i32 %3, ptr %25, align 4, !tbaa !171
  %26 = getelementptr i8, ptr %17, i64 -4
  store i32 %4, ptr %26, align 4, !tbaa !172
  ret void
}